; Function Attrs: mustprogress uwtable
define dso_local noundef zeroext i1 @_Z23have_overlapping_fieldsPK10ExpressionS1_RKSt6vectorIPK4FactSaIS5_EE(ptr noundef %0, ptr noundef %1, ptr noundef nonnull align 8 dereferenceable(24) %2) local_unnamed_addr #3 personality ptr @__gxx_personality_v0 {
  %4 = alloca %"class.std::vector.3", align 8
  %5 = alloca %"class.std::vector.3", align 8
  call void @llvm.lifetime.start.p0(i64 24, ptr nonnull %4) #16
  call void @llvm.memset.p0.i64(ptr noundef nonnull align 8 dereferenceable(24) %4, i8 0, i64 24, i1 false)
  call void @llvm.lifetime.start.p0(i64 24, ptr nonnull %5) #16
  call void @llvm.memset.p0.i64(ptr noundef nonnull align 8 dereferenceable(24) %5, i8 0, i64 24, i1 false)
  %6 = invoke noundef i32 @_ZN11FactPointTo19find_union_pointeesERKSt6vectorIPK4FactSaIS3_EEPK10ExpressionRS0_IPK8VariableSaISD_EE(ptr noundef nonnull align 8 dereferenceable(24) %2, ptr noundef %0, ptr noundef nonnull align 8 dereferenceable(24) %4)
          to label %7 unwind label %20

7:                                                ; preds = %3
  %.not = icmp eq i32 %6, 0
  br i1 %.not, label %_ZNSt6vectorIPK8VariableSaIS2_EED2Ev.exit, label %8

8:                                                ; preds = %7
  %9 = invoke noundef i32 @_ZN11FactPointTo19find_union_pointeesERKSt6vectorIPK4FactSaIS3_EEPK10ExpressionRS0_IPK8VariableSaISD_EE(ptr noundef nonnull align 8 dereferenceable(24) %2, ptr noundef %1, ptr noundef nonnull align 8 dereferenceable(24) %5)
          to label %.preheader unwind label %20

.preheader:                                       ; preds = %8
  %10 = getelementptr inbounds nuw i8, ptr %5, i64 8
  %11 = load ptr, ptr %10, align 8, !tbaa !98
  %12 = load ptr, ptr %5, align 8, !tbaa !100
  %.not1522.not = icmp eq ptr %11, %12
  br i1 %.not1522.not, label %.critedge, label %.lr.ph

13:                                               ; preds = %26
  %14 = add nuw i64 %.01023, 1
  %15 = load ptr, ptr %10, align 8, !tbaa !98
  %16 = ptrtoint ptr %15 to i64
  %17 = ptrtoint ptr %.pre.pre to i64
  %18 = sub i64 %16, %17
  %19 = ashr exact i64 %18, 3
  %.not15 = icmp ult i64 %14, %19
  br i1 %.not15, label %.lr.ph, label %.critedge, !llvm.loop !146

20:                                               ; preds = %8, %3
  %21 = landingpad { ptr, i32 }
          cleanup
  br label %43

.lr.ph:                                           ; preds = %.preheader, %13
  %22 = phi ptr [ %.pre.pre, %13 ], [ %12, %.preheader ]
  %.01023 = phi i64 [ %14, %13 ], [ 0, %.preheader ]
  %23 = getelementptr inbounds nuw ptr, ptr %22, i64 %.01023
  %24 = load ptr, ptr %23, align 8, !tbaa !91
  %25 = invoke noundef zeroext i1 @_Z18is_variable_in_setRKSt6vectorIPK8VariableSaIS2_EES2_(ptr noundef nonnull align 8 dereferenceable(24) %4, ptr noundef %24)
          to label %26 unwind label %27

26:                                               ; preds = %.lr.ph
  %.pre.pre = load ptr, ptr %5, align 8, !tbaa !100
  br i1 %25, label %.critedge, label %13

27:                                               ; preds = %.lr.ph
  %28 = landingpad { ptr, i32 }
          cleanup
  br label %43

.critedge:                                        ; preds = %26, %13, %.preheader
  %29 = phi ptr [ %12, %.preheader ], [ %.pre.pre, %13 ], [ %.pre.pre, %26 ]
  %.1 = phi i1 [ false, %.preheader ], [ %25, %13 ], [ %25, %26 ]
  %.not.i.i.i = icmp eq ptr %29, null
  br i1 %.not.i.i.i, label %_ZNSt6vectorIPK8VariableSaIS2_EED2Ev.exit, label %30

30:                                               ; preds = %.critedge
  %31 = getelementptr inbounds nuw i8, ptr %5, i64 16
  %32 = load ptr, ptr %31, align 8, !tbaa !99
  %33 = ptrtoint ptr %32 to i64
  %34 = ptrtoint ptr %29 to i64
  %35 = sub i64 %33, %34
  call void @_ZdlPvm(ptr noundef nonnull %29, i64 noundef %35) #18
  br label %_ZNSt6vectorIPK8VariableSaIS2_EED2Ev.exit

_ZNSt6vectorIPK8VariableSaIS2_EED2Ev.exit:        ; preds = %7, %.critedge, %30
  %.128 = phi i1 [ %.1, %.critedge ], [ %.1, %30 ], [ false, %7 ]
  call void @llvm.lifetime.end.p0(i64 24, ptr nonnull %5) #16
  %36 = load ptr, ptr %4, align 8, !tbaa !100
  %.not.i.i.i16 = icmp eq ptr %36, null
  br i1 %.not.i.i.i16, label %_ZNSt6vectorIPK8VariableSaIS2_EED2Ev.exit17, label %37

37:                                               ; preds = %_ZNSt6vectorIPK8VariableSaIS2_EED2Ev.exit
  %38 = getelementptr inbounds nuw i8, ptr %4, i64 16
  %39 = load ptr, ptr %38, align 8, !tbaa !99
  %40 = ptrtoint ptr %39 to i64
  %41 = ptrtoint ptr %36 to i64
  %42 = sub i64 %40, %41
  call void @_ZdlPvm(ptr noundef nonnull %36, i64 noundef %42) #18
  br label %_ZNSt6vectorIPK8VariableSaIS2_EED2Ev.exit17

_ZNSt6vectorIPK8VariableSaIS2_EED2Ev.exit17:      ; preds = %_ZNSt6vectorIPK8VariableSaIS2_EED2Ev.exit, %37
  call void @llvm.lifetime.end.p0(i64 24, ptr nonnull %4) #16
  ret i1 %.128

43:                                               ; preds = %27, %20
  %.pn = phi { ptr, i32 } [ %28, %27 ], [ %21, %20 ]
  %44 = load ptr, ptr %5, align 8, !tbaa !100
  %.not.i.i.i18 = icmp eq ptr %44, null
  br i1 %.not.i.i.i18, label %_ZNSt6vectorIPK8VariableSaIS2_EED2Ev.exit19, label %45

45:                                               ; preds = %43
  %46 = getelementptr inbounds nuw i8, ptr %5, i64 16
  %47 = load ptr, ptr %46, align 8, !tbaa !99
  %48 = ptrtoint ptr %47 to i64
  %49 = ptrtoint ptr %44 to i64
  %50 = sub i64 %48, %49
  call void @_ZdlPvm(ptr noundef nonnull %44, i64 noundef %50) #18
  br label %_ZNSt6vectorIPK8VariableSaIS2_EED2Ev.exit19

_ZNSt6vectorIPK8VariableSaIS2_EED2Ev.exit19:      ; preds = %43, %45
  call void @llvm.lifetime.end.p0(i64 24, ptr nonnull %5) #16
  %51 = load ptr, ptr %4, align 8, !tbaa !100
  %.not.i.i.i20 = icmp eq ptr %51, null
  br i1 %.not.i.i.i20, label %_ZNSt6vectorIPK8VariableSaIS2_EED2Ev.exit21, label %52

52:                                               ; preds = %_ZNSt6vectorIPK8VariableSaIS2_EED2Ev.exit19
  %53 = getelementptr inbounds nuw i8, ptr %4, i64 16
  %54 = load ptr, ptr %53, align 8, !tbaa !99
  %55 = ptrtoint ptr %54 to i64
  %56 = ptrtoint ptr %51 to i64
  %57 = sub i64 %55, %56
  call void @_ZdlPvm(ptr noundef nonnull %51, i64 noundef %57) #18
  br label %_ZNSt6vectorIPK8VariableSaIS2_EED2Ev.exit21

_ZNSt6vectorIPK8VariableSaIS2_EED2Ev.exit21:      ; preds = %_ZNSt6vectorIPK8VariableSaIS2_EED2Ev.exit19, %52
  call void @llvm.lifetime.end.p0(i64 24, ptr nonnull %4) #16
  resume { ptr, i32 } %.pn
}